Certificate:
    Data:
        Version: 3 (0x2)
        Serial Number: 36 (0x24)
        Signature Algorithm: sha256WithRSAEncryption
        Issuer: C=US, O=Google, OU=Enterprise, CN=Single Root CA
        Validity
            Not Before: Aug 15 18:10:13 2024 GMT
            Not After : Aug 15 18:10:13 2034 GMT
        Subject: L=US, O=Google, OU=Enterprise, CN=alice@domain.com
        Subject Public Key Info:
            Public Key Algorithm: rsaEncryption
                Public-Key: (2048 bit)
                Modulus:
                    00:d9:ff:37:52:ca:5d:b1:30:62:72:7d:e2:9f:ee:
                    7f:1a:3f:67:e6:3e:78:4c:19:56:81:36:24:01:cb:
                    bf:1f:06:59:77:c1:38:14:44:92:ed:21:35:05:24:
                    5c:99:68:40:69:a6:be:43:c8:b7:e3:43:bf:f3:ff:
                    90:41:f2:87:54:7e:98:81:4f:cf:ef:50:51:3f:7c:
                    ad:60:ce:07:73:e4:74:9b:c9:79:b1:53:72:92:a4:
                    e8:c5:94:27:19:62:11:6b:ae:42:9b:d9:dc:c8:c0:
                    89:da:5b:34:8f:82:da:bf:ab:8e:e8:55:0c:02:0c:
                    ef:29:5e:db:00:32:81:bf:93:52:d9:d4:c9:2a:a6:
                    35:d2:87:2a:2b:86:ee:90:bc:1e:cf:7e:2d:ef:42:
                    0e:c6:33:f1:41:5c:4c:66:d0:a7:ac:d7:58:c8:bd:
                    48:b7:c0:60:ec:a1:9b:10:8d:48:0e:88:fc:ce:97:
                    1b:ab:be:e9:4c:a2:f5:0c:9a:8c:80:c7:18:5b:fa:
                    c3:64:94:5b:2b:94:24:6a:94:2e:86:10:9e:df:6b:
                    a7:34:be:e8:fe:02:54:0a:ec:ae:41:f3:65:70:75:
                    47:d1:50:58:25:cc:3e:76:00:28:d8:f6:44:b0:bd:
                    f6:ba:86:cf:95:27:d7:a9:17:45:c1:b9:3a:48:18:
                    76:4f
                Exponent: 65537 (0x10001)
        X509v3 extensions:
            X509v3 Extended Key Usage: 
                TLS Web Client Authentication
            X509v3 Key Usage: critical
                Digital Signature
            X509v3 Basic Constraints: 
                CA:FALSE
            X509v3 Subject Key Identifier: 
                25:24:AD:2B:ED:BD:F7:E8:A7:E7:C6:1A:56:BE:D3:DD:00:EB:55:20
            X509v3 Authority Key Identifier: 
                EC:F0:EA:53:53:3F:9F:23:DC:C1:0E:31:10:37:07:DE:DE:E7:6E:F3
            Authority Information Access: 
                CA Issuers - URI:http://pki.esodemoapp2.com/ca/root-ca.cer
            X509v3 CRL Distribution Points: 
                Full Name:
                  URI:http://pki.esodemoapp2.com/ca/root-ca.crl
            X509v3 Subject Alternative Name: 
                email:alice@domain.com
    Signature Algorithm: sha256WithRSAEncryption
    Signature Value:
        95:af:ab:4e:3c:48:83:cb:52:e4:f0:aa:cf:44:7c:fb:af:8b:
        8a:51:13:34:a1:da:cf:cb:48:2d:04:25:6b:09:81:56:25:85:
        9c:91:de:fc:20:ec:e3:73:18:0f:3a:4e:90:96:5a:a2:6a:6f:
        4d:4d:ac:53:1b:a4:35:7e:56:fa:8a:2a:3b:ba:9b:44:39:5e:
        7f:a9:3d:96:73:12:a0:92:b0:89:78:dc:c3:e6:e6:92:4e:26:
        76:80:06:ca:0a:97:bf:47:06:1e:70:d2:24:11:5d:3f:1c:6e:
        52:2e:1e:80:ea:6d:9d:56:24:8c:e5:b4:38:44:30:28:5d:e9:
        ef:49:3d:2e:a7:36:94:ac:bd:29:21:9b:79:7d:6e:de:b1:35:
        3f:61:54:9a:95:2c:2c:62:45:7c:95:44:b6:bb:ae:ff:f2:8a:
        ac:4c:cb:3c:ea:6b:01:43:ac:8a:1b:16:b7:2d:81:3c:76:64:
        ed:88:83:e3:f1:77:6c:19:c5:0d:33:83:26:da:54:30:07:ac:
        04:a8:fd:4b:69:8d:ea:bf:81:82:93:b5:e7:c3:a8:38:fe:67:
        51:34:fd:f0:8d:6f:4d:0d:7c:b5:3d:05:ed:25:5c:71:68:ef:
        eb:83:3b:24:39:f3:25:74:e6:ca:86:4d:6f:f7:25:75:c0:cd:
        ff:2d:80:f0
-----BEGIN CERTIFICATE-----
MIIEKzCCAxOgAwIBAgIBJDANBgkqhkiG9w0BAQsFADBMMQswCQYDVQQGEwJVUzEP
MA0GA1UECgwGR29vZ2xlMRMwEQYDVQQLDApFbnRlcnByaXNlMRcwFQYDVQQDDA5T
aW5nbGUgUm9vdCBDQTAeFw0yNDA4MTUxODEwMTNaFw0zNDA4MTUxODEwMTNaME4x
CzAJBgNVBAcMAlVTMQ8wDQYDVQQKDAZHb29nbGUxEzARBgNVBAsMCkVudGVycHJp
c2UxGTAXBgNVBAMMEGFsaWNlQGRvbWFpbi5jb20wggEiMA0GCSqGSIb3DQEBAQUA
A4IBDwAwggEKAoIBAQDZ/zdSyl2xMGJyfeKf7n8aP2fmPnhMGVaBNiQBy78fBll3
wTgURJLtITUFJFyZaEBppr5DyLfjQ7/z/5BB8odUfpiBT8/vUFE/fK1gzgdz5HSb
yXmxU3KSpOjFlCcZYhFrrkKb2dzIwInaWzSPgtq/q47oVQwCDO8pXtsAMoG/k1LZ
1MkqpjXShyorhu6QvB7Pfi3vQg7GM/FBXExm0Kes11jIvUi3wGDsoZsQjUgOiPzO
lxurvulMovUMmoyAxxhb+sNklFsrlCRqlC6GEJ7fa6c0vuj+AlQK7K5B82VwdUfR
UFglzD52ACjY9kSwvfa6hs+VJ9epF0XBuTpIGHZPAgMBAAGjggEUMIIBEDATBgNV
HSUEDDAKBggrBgEFBQcDAjAOBgNVHQ8BAf8EBAMCB4AwCQYDVR0TBAIwADAdBgNV
HQ4EFgQUJSStK+299+in58YaVr7T3QDrVSAwHwYDVR0jBBgwFoAU7PDqU1M/nyPc
wQ4xEDcH3t7nbvMwRQYIKwYBBQUHAQEEOTA3MDUGCCsGAQUFBzAChilodHRwOi8v
cGtpLmVzb2RlbW9hcHAyLmNvbS9jYS9yb290LWNhLmNlcjA6BgNVHR8EMzAxMC+g
LaArhilodHRwOi8vcGtpLmVzb2RlbW9hcHAyLmNvbS9jYS9yb290LWNhLmNybDAb
BgNVHREEFDASgRBhbGljZUBkb21haW4uY29tMA0GCSqGSIb3DQEBCwUAA4IBAQCV
r6tOPEiDy1Lk8KrPRHz7r4uKURM0odrPy0gtBCVrCYFWJYWckd78IOzjcxgPOk6Q
llqiam9NTaxTG6Q1flb6iio7uptEOV5/qT2WcxKgkrCJeNzD5uaSTiZ2gAbKCpe/
RwYecNIkEV0/HG5SLh6A6m2dViSM5bQ4RDAoXenvST0upzaUrL0pIZt5fW7esTU/
YVSalSwsYkV8lUS2u67/8oqsTMs86msBQ6yKGxa3LYE8dmTtiIPj8XdsGcUNM4Mm
2lQwB6wEqP1LaY3qv4GCk7Xnw6g4/mdRNP3wjW9NDXy1PQXtJVxxaO/rgzskOfMl
dObKhk1v9yV1wM3/LYDw
-----END CERTIFICATE-----
