Certificate:
    Data:
        Version: 3 (0x2)
        Serial Number: 30 (0x1e)
        Signature Algorithm: sha256WithRSAEncryption
        Issuer: C=US, O=Google, OU=Enterprise, CN=Enterprise Subordinate CA
        Validity
            Not Before: Aug 17 18:10:53 2022 GMT
            Not After : Nov 24 18:10:53 2024 GMT
        Subject: C=US, O=Google, OU=Enterprise, CN=alice@domain.com
        Subject Public Key Info:
            Public Key Algorithm: rsaEncryption
                Public-Key: (2048 bit)
                Modulus:
                    00:c2:4d:cf:0c:3e:48:60:87:f5:e2:9f:a4:e2:0f:
                    48:c1:2a:87:5f:45:3d:da:46:47:de:90:19:59:67:
                    ca:70:a9:b8:56:c0:9f:23:52:5a:65:95:07:87:70:
                    e7:bb:3b:92:43:18:52:25:c8:c2:da:b0:d5:4e:d1:
                    bb:d3:9e:53:00:92:f5:67:42:4f:d6:d9:a0:52:36:
                    f8:d0:5e:3c:23:1a:0e:95:c3:aa:46:2d:94:41:0f:
                    5e:3d:51:56:b1:65:a7:3a:1b:c2:e8:9b:02:4c:dd:
                    0c:85:ee:de:4e:e2:3d:10:61:cf:0a:2e:9f:3d:eb:
                    5e:5f:3a:8d:1e:dc:da:95:c8:89:b1:a9:72:19:02:
                    eb:7c:06:92:85:13:dd:91:dc:03:dd:71:ad:aa:6e:
                    4f:08:1a:30:b2:22:2e:34:5e:32:c7:75:b5:fb:32:
                    47:66:59:15:45:2e:8e:5c:80:21:10:bd:2e:d2:f7:
                    c3:91:1e:68:fa:d4:a6:f5:9c:8f:35:bb:62:da:8c:
                    21:be:dd:53:59:a5:b5:16:69:5e:ac:6e:68:da:1a:
                    f5:2e:fe:dc:15:85:3a:d3:d5:05:40:61:5b:f0:61:
                    04:b8:b7:ad:37:7d:a5:94:58:7a:14:8e:cf:cf:5e:
                    80:57:53:51:11:ce:e5:3a:97:14:b9:dc:a1:1c:a7:
                    fd:2d
                Exponent: 65537 (0x10001)
        X509v3 extensions:
            X509v3 Key Usage: critical
                Digital Signature
            X509v3 Basic Constraints: 
                CA:FALSE
            X509v3 Extended Key Usage: 
                TLS Web Client Authentication
            X509v3 Subject Key Identifier: 
                E4:45:56:D0:BF:7F:44:5A:83:46:52:2B:26:B4:8D:B5:AB:E3:EC:27
            X509v3 Authority Key Identifier: 
                B7:BA:B0:02:A1:E7:BE:34:C6:C1:05:5C:66:78:E5:BB:53:5D:A1:54
            Authority Information Access: 
                CA Issuers - URI:http://pki.esodemoapp2.com/ca/tls-ca.cer
            X509v3 CRL Distribution Points: 
                Full Name:
                  URI:http://pki.esodemoapp2.com/ca/tls-ca.crl
            X509v3 Subject Alternative Name: 
                email:alice@domain.com
    Signature Algorithm: sha256WithRSAEncryption
    Signature Value:
        8c:6d:fe:4d:51:6a:92:90:cd:26:c4:68:f7:6c:fe:7c:38:81:
        c1:01:d8:e0:a9:6a:06:11:02:dd:24:e3:2e:63:cb:7f:e2:11:
        8b:e4:f4:47:b0:f8:11:8e:5c:75:75:ec:96:00:2d:99:d2:46:
        7f:a1:07:65:32:62:fb:05:88:5f:ac:6f:2e:ab:f1:4d:c5:24:
        97:f8:92:c7:98:07:85:ff:9d:41:12:f8:90:de:87:6f:e7:8c:
        bc:0c:4e:dd:c9:21:d4:04:93:0b:87:ae:8c:55:0e:b2:f1:1f:
        1b:e8:97:13:40:72:b3:eb:e1:10:65:1d:df:7b:74:fd:15:a2:
        2a:92:44:d8:9f:b6:b7:ad:28:16:d8:12:16:de:07:f5:84:9f:
        77:83:87:71:a0:54:d0:ae:cb:65:cc:3f:e8:5e:f5:bf:a9:4e:
        12:1f:dd:68:82:f8:e7:0c:69:fb:8f:0e:ae:3e:a9:e9:36:28:
        76:01:3b:47:83:af:f2:75:d7:86:02:cc:d4:46:f3:cb:96:f3:
        38:33:4d:3b:fc:bc:a1:5e:2e:4a:ff:96:8e:74:b3:51:57:e0:
        c0:75:35:ff:ac:66:ba:d5:6a:25:46:d5:00:34:be:b2:41:97:
        cf:18:c5:8d:8f:78:66:46:fe:f5:95:65:dd:24:24:26:d2:ea:
        0c:6c:2e:f6
-----BEGIN CERTIFICATE-----
MIIENDCCAxygAwIBAgIBHjANBgkqhkiG9w0BAQsFADBXMQswCQYDVQQGEwJVUzEP
MA0GA1UECgwGR29vZ2xlMRMwEQYDVQQLDApFbnRlcnByaXNlMSIwIAYDVQQDDBlF
bnRlcnByaXNlIFN1Ym9yZGluYXRlIENBMB4XDTIyMDgxNzE4MTA1M1oXDTI0MTEy
NDE4MTA1M1owTjELMAkGA1UEBhMCVVMxDzANBgNVBAoMBkdvb2dsZTETMBEGA1UE
CwwKRW50ZXJwcmlzZTEZMBcGA1UEAwwQYWxpY2VAZG9tYWluLmNvbTCCASIwDQYJ
KoZIhvcNAQEBBQADggEPADCCAQoCggEBAMJNzww+SGCH9eKfpOIPSMEqh19FPdpG
R96QGVlnynCpuFbAnyNSWmWVB4dw57s7kkMYUiXIwtqw1U7Ru9OeUwCS9WdCT9bZ
oFI2+NBePCMaDpXDqkYtlEEPXj1RVrFlpzobwuibAkzdDIXu3k7iPRBhzwounz3r
Xl86jR7c2pXIibGpchkC63wGkoUT3ZHcA91xrapuTwgaMLIiLjReMsd1tfsyR2ZZ
FUUujlyAIRC9LtL3w5EeaPrUpvWcjzW7YtqMIb7dU1mltRZpXqxuaNoa9S7+3BWF
OtPVBUBhW/BhBLi3rTd9pZRYehSOz89egFdTURHO5TqXFLncoRyn/S0CAwEAAaOC
ARIwggEOMA4GA1UdDwEB/wQEAwIHgDAJBgNVHRMEAjAAMBMGA1UdJQQMMAoGCCsG
AQUFBwMCMB0GA1UdDgQWBBTkRVbQv39EWoNGUismtI21q+PsJzAfBgNVHSMEGDAW
gBS3urACoee+NMbBBVxmeOW7U12hVDBEBggrBgEFBQcBAQQ4MDYwNAYIKwYBBQUH
MAKGKGh0dHA6Ly9wa2kuZXNvZGVtb2FwcDIuY29tL2NhL3Rscy1jYS5jZXIwOQYD
VR0fBDIwMDAuoCygKoYoaHR0cDovL3BraS5lc29kZW1vYXBwMi5jb20vY2EvdGxz
LWNhLmNybDAbBgNVHREEFDASgRBhbGljZUBkb21haW4uY29tMA0GCSqGSIb3DQEB
CwUAA4IBAQCMbf5NUWqSkM0mxGj3bP58OIHBAdjgqWoGEQLdJOMuY8t/4hGL5PRH
sPgRjlx1deyWAC2Z0kZ/oQdlMmL7BYhfrG8uq/FNxSSX+JLHmAeF/51BEviQ3odv
54y8DE7dySHUBJMLh66MVQ6y8R8b6JcTQHKz6+EQZR3fe3T9FaIqkkTYn7a3rSgW
2BIW3gf1hJ93g4dxoFTQrstlzD/oXvW/qU4SH91ogvjnDGn7jw6uPqnpNih2ATtH
g6/yddeGAszURvPLlvM4M007/LyhXi5K/5aOdLNRV+DAdTX/rGa61WolRtUANL6y
QZfPGMWNj3hmRv71lWXdJCQm0uoMbC72
-----END CERTIFICATE-----
