Certificate:
    Data:
        Version: 3 (0x2)
        Serial Number: 37 (0x25)
        Signature Algorithm: sha256WithRSAEncryption
        Issuer: C=US, O=Google, OU=Enterprise, CN=Single Root CA
        Validity
            Not Before: Aug 15 18:11:01 2024 GMT
            Not After : Aug 15 18:11:01 2034 GMT
        Subject: L=US, O=Google, OU=Enterprise, CN=bob@domain.com
        Subject Public Key Info:
            Public Key Algorithm: rsaEncryption
                Public-Key: (2048 bit)
                Modulus:
                    00:9b:5e:7b:a3:5c:cf:72:6a:93:c6:f6:5a:ee:2d:
                    ad:24:9a:78:97:c0:91:eb:80:73:17:f8:d7:2c:3a:
                    90:00:9b:88:23:ba:70:08:85:88:70:b3:55:c8:54:
                    b4:f5:92:2c:98:8a:bc:d4:c2:5b:74:1f:98:02:9b:
                    26:fb:a6:09:60:4a:86:f8:40:c8:6f:55:bb:75:bd:
                    6a:a8:fd:91:36:64:c0:d7:84:ba:ed:6d:88:5c:65:
                    bd:cd:78:a0:2e:b2:24:65:43:3f:8b:d4:4a:aa:f3:
                    d0:49:1f:02:1e:44:8c:25:0a:d2:51:09:ea:dc:e2:
                    df:84:30:4e:18:15:ef:64:17:7a:23:34:7d:7e:f0:
                    20:4e:12:c4:43:ba:0c:d8:d6:b2:23:42:1d:1f:c7:
                    4e:ed:a1:3e:b1:c4:db:10:7b:93:65:65:3d:fc:f9:
                    14:0f:a8:e7:3a:23:65:0c:3b:7b:86:a6:ec:10:8c:
                    f0:42:00:07:7a:bb:71:ec:3d:14:45:12:0a:40:c9:
                    a7:d5:7a:21:20:7e:0e:50:5c:ce:9e:07:0c:f0:7b:
                    27:0a:d3:c7:31:22:3d:a6:e0:52:15:78:63:13:f9:
                    be:cc:eb:8a:a7:05:97:b9:d6:a0:db:ff:4c:48:f3:
                    18:50:ba:e8:42:6b:a2:55:bf:c5:ef:d9:61:c1:f6:
                    0e:85
                Exponent: 65537 (0x10001)
        X509v3 extensions:
            X509v3 Extended Key Usage: 
                TLS Web Client Authentication
            X509v3 Key Usage: critical
                Digital Signature
            X509v3 Basic Constraints: 
                CA:FALSE
            X509v3 Subject Key Identifier: 
                3C:A4:53:70:32:AB:F3:91:60:8A:2C:7D:D8:6B:57:69:D2:E1:64:F5
            X509v3 Authority Key Identifier: 
                EC:F0:EA:53:53:3F:9F:23:DC:C1:0E:31:10:37:07:DE:DE:E7:6E:F3
            Authority Information Access: 
                CA Issuers - URI:http://pki.esodemoapp2.com/ca/root-ca.cer
            X509v3 CRL Distribution Points: 
                Full Name:
                  URI:http://pki.esodemoapp2.com/ca/root-ca.crl
            X509v3 Subject Alternative Name: 
                email:bob@domain.com
    Signature Algorithm: sha256WithRSAEncryption
    Signature Value:
        1a:a5:4b:1d:f8:f7:b8:cd:a3:d4:a5:98:91:d3:ee:10:59:6a:
        94:fe:d6:5a:a7:9e:42:ee:88:ae:05:ed:55:64:d5:2a:03:c6:
        c6:e0:ae:8d:eb:a1:64:af:56:46:ad:ba:27:b0:29:ea:20:82:
        66:5d:40:84:52:79:a3:34:a8:52:87:4b:e9:38:96:24:c9:7f:
        0b:17:e6:d6:e9:1e:e5:7b:79:7d:45:18:2d:8f:3c:ef:da:09:
        94:d2:fc:3c:ac:f9:56:a6:85:c7:17:6c:8c:6e:88:7f:0e:fd:
        a4:41:f7:81:bb:bf:5c:92:5d:41:b4:ba:5a:4d:7a:62:fd:6a:
        52:2d:db:90:12:0e:74:ed:63:b5:a8:5b:82:9e:2f:df:0a:18:
        00:f4:60:8d:80:b6:f7:1c:3b:33:cc:c6:25:9f:10:30:24:33:
        73:ac:ef:94:ce:d5:15:f3:5e:de:b6:48:ec:ea:4a:15:98:aa:
        92:55:c7:b7:83:70:d1:cf:85:99:c6:d5:97:ee:e4:c4:d2:7a:
        65:00:29:b8:f9:de:31:9a:e6:74:8a:01:76:34:af:8c:c7:84:
        44:70:75:5c:7b:ce:19:27:0c:85:5d:20:7e:ea:b2:15:98:30:
        28:1d:71:24:5c:31:f0:de:5f:63:fd:0f:3e:17:43:65:37:db:
        17:9b:37:dd
-----BEGIN CERTIFICATE-----
MIIEJzCCAw+gAwIBAgIBJTANBgkqhkiG9w0BAQsFADBMMQswCQYDVQQGEwJVUzEP
MA0GA1UECgwGR29vZ2xlMRMwEQYDVQQLDApFbnRlcnByaXNlMRcwFQYDVQQDDA5T
aW5nbGUgUm9vdCBDQTAeFw0yNDA4MTUxODExMDFaFw0zNDA4MTUxODExMDFaMEwx
CzAJBgNVBAcMAlVTMQ8wDQYDVQQKDAZHb29nbGUxEzARBgNVBAsMCkVudGVycHJp
c2UxFzAVBgNVBAMMDmJvYkBkb21haW4uY29tMIIBIjANBgkqhkiG9w0BAQEFAAOC
AQ8AMIIBCgKCAQEAm157o1zPcmqTxvZa7i2tJJp4l8CR64BzF/jXLDqQAJuII7pw
CIWIcLNVyFS09ZIsmIq81MJbdB+YApsm+6YJYEqG+EDIb1W7db1qqP2RNmTA14S6
7W2IXGW9zXigLrIkZUM/i9RKqvPQSR8CHkSMJQrSUQnq3OLfhDBOGBXvZBd6IzR9
fvAgThLEQ7oM2NayI0IdH8dO7aE+scTbEHuTZWU9/PkUD6jnOiNlDDt7hqbsEIzw
QgAHertx7D0URRIKQMmn1XohIH4OUFzOngcM8HsnCtPHMSI9puBSFXhjE/m+zOuK
pwWXudag2/9MSPMYULroQmuiVb/F79lhwfYOhQIDAQABo4IBEjCCAQ4wEwYDVR0l
BAwwCgYIKwYBBQUHAwIwDgYDVR0PAQH/BAQDAgeAMAkGA1UdEwQCMAAwHQYDVR0O
BBYEFDykU3Ayq/ORYIosfdhrV2nS4WT1MB8GA1UdIwQYMBaAFOzw6lNTP58j3MEO
MRA3B97e527zMEUGCCsGAQUFBwEBBDkwNzA1BggrBgEFBQcwAoYpaHR0cDovL3Br
aS5lc29kZW1vYXBwMi5jb20vY2Evcm9vdC1jYS5jZXIwOgYDVR0fBDMwMTAvoC2g
K4YpaHR0cDovL3BraS5lc29kZW1vYXBwMi5jb20vY2Evcm9vdC1jYS5jcmwwGQYD
VR0RBBIwEIEOYm9iQGRvbWFpbi5jb20wDQYJKoZIhvcNAQELBQADggEBABqlSx34
97jNo9SlmJHT7hBZapT+1lqnnkLuiK4F7VVk1SoDxsbgro3roWSvVkatuiewKeog
gmZdQIRSeaM0qFKHS+k4liTJfwsX5tbpHuV7eX1FGC2PPO/aCZTS/Dys+VamhccX
bIxuiH8O/aRB94G7v1ySXUG0ulpNemL9alIt25ASDnTtY7WoW4KeL98KGAD0YI2A
tvccOzPMxiWfEDAkM3Os75TO1RXzXt62SOzqShWYqpJVx7eDcNHPhZnG1Zfu5MTS
emUAKbj53jGa5nSKAXY0r4zHhERwdVx7zhknDIVdIH7qshWYMCgdcSRcMfDeX2P9
Dz4XQ2U32xebN90=
-----END CERTIFICATE-----
