Certificate:
    Data:
        Version: 3 (0x2)
        Serial Number: 31 (0x1f)
        Signature Algorithm: sha256WithRSAEncryption
        Issuer: C=US, O=Google, OU=Enterprise, CN=Enterprise Subordinate CA
        Validity
            Not Before: Aug 17 18:11:30 2022 GMT
            Not After : Nov 24 18:11:30 2024 GMT
        Subject: C=US, O=Google, OU=Enterprise, CN=bob@domain.com
        Subject Public Key Info:
            Public Key Algorithm: rsaEncryption
                Public-Key: (2048 bit)
                Modulus:
                    00:c4:ec:3f:da:07:5b:72:d9:49:b9:55:98:09:59:
                    04:a3:a3:2e:f0:54:77:23:f5:e0:4e:e4:59:d0:48:
                    80:45:7b:3d:03:2c:08:d2:82:07:07:d3:ee:7d:c5:
                    fe:9e:92:b9:7e:19:3b:11:68:f7:80:bc:64:5f:92:
                    87:97:ae:dc:6c:75:30:54:14:27:b5:93:2b:35:2d:
                    54:d2:23:7c:8b:b6:97:15:84:ca:17:7c:94:40:ec:
                    8a:34:13:e9:14:ed:a8:be:cc:86:4d:ae:bd:19:86:
                    3a:c1:ee:73:0a:66:4c:6d:e1:b9:5a:74:43:ed:0e:
                    8b:42:cc:51:c4:0a:c5:ee:37:61:5b:5c:f3:f5:14:
                    7d:c5:5d:93:e5:44:37:52:1c:f4:1d:d1:2e:3c:cf:
                    82:83:87:81:e3:5a:5a:ec:af:b0:23:68:64:53:7b:
                    e4:4e:7d:39:fd:66:fb:56:d1:24:f6:95:53:e3:e4:
                    9b:e7:cb:a5:48:58:a6:44:06:27:6f:d6:7e:52:36:
                    d6:50:ac:e9:3f:93:eb:f5:8c:f4:6e:35:df:2b:76:
                    bc:4c:05:b9:33:cc:40:95:5b:1c:7a:d8:23:6a:44:
                    3d:61:90:80:ea:6f:ef:c7:e7:c0:97:ce:c6:a4:ff:
                    ce:37:5c:a6:5b:e7:92:b3:1b:2d:ad:76:16:02:1e:
                    ff:63
                Exponent: 65537 (0x10001)
        X509v3 extensions:
            X509v3 Key Usage: critical
                Digital Signature
            X509v3 Basic Constraints: 
                CA:FALSE
            X509v3 Extended Key Usage: 
                TLS Web Client Authentication
            X509v3 Subject Key Identifier: 
                07:0E:1A:E9:A2:58:22:53:8A:64:2D:A7:9B:8A:0D:F8:72:8D:E0:C5
            X509v3 Authority Key Identifier: 
                B7:BA:B0:02:A1:E7:BE:34:C6:C1:05:5C:66:78:E5:BB:53:5D:A1:54
            Authority Information Access: 
                CA Issuers - URI:http://pki.esodemoapp2.com/ca/tls-ca.cer
            X509v3 CRL Distribution Points: 
                Full Name:
                  URI:http://pki.esodemoapp2.com/ca/tls-ca.crl
            X509v3 Subject Alternative Name: 
                email:bob@domain.com
    Signature Algorithm: sha256WithRSAEncryption
    Signature Value:
        b6:9f:04:50:a3:a7:81:92:e8:a7:cd:68:64:93:99:f9:21:4b:
        18:59:67:de:0f:ca:17:9f:83:29:33:1b:57:ec:ba:18:a7:d5:
        d2:1a:4f:70:58:ac:d7:5e:5c:50:f1:8e:d1:9c:d9:05:e5:fd:
        62:ae:25:01:b4:bf:9a:46:d4:d2:98:85:05:be:95:1a:88:19:
        68:50:e3:db:03:ed:2f:9b:cc:bc:19:b8:3f:ab:0d:30:de:a4:
        a2:0a:fe:9d:56:2d:3e:30:45:ec:59:c1:cc:a0:47:60:99:fc:
        38:50:8f:ad:b9:1a:1c:2f:18:25:ae:f7:0f:1c:9f:05:ba:49:
        c0:9e:ed:5d:cb:0e:75:f7:b9:4e:cd:d0:df:24:64:da:9b:67:
        f3:8b:58:b8:68:54:32:49:d6:a4:2b:67:69:64:00:be:22:7e:
        d3:b6:d0:68:8b:b5:24:ff:f1:47:40:03:8c:14:9d:bd:7e:9b:
        09:85:c7:9c:23:3e:0e:bd:b1:1a:53:cc:01:e7:eb:99:97:62:
        a2:c6:04:70:99:e6:cb:e7:47:80:21:18:f9:0f:db:8d:53:3a:
        63:ca:99:e5:3b:d6:9b:1f:7c:fc:69:7d:f6:36:c4:5d:ff:12:
        80:83:65:3c:9c:d4:25:15:c0:31:5d:ec:a4:ff:e5:72:47:dd:
        d2:d1:ae:bf
-----BEGIN CERTIFICATE-----
MIIEMDCCAxigAwIBAgIBHzANBgkqhkiG9w0BAQsFADBXMQswCQYDVQQGEwJVUzEP
MA0GA1UECgwGR29vZ2xlMRMwEQYDVQQLDApFbnRlcnByaXNlMSIwIAYDVQQDDBlF
bnRlcnByaXNlIFN1Ym9yZGluYXRlIENBMB4XDTIyMDgxNzE4MTEzMFoXDTI0MTEy
NDE4MTEzMFowTDELMAkGA1UEBhMCVVMxDzANBgNVBAoMBkdvb2dsZTETMBEGA1UE
CwwKRW50ZXJwcmlzZTEXMBUGA1UEAwwOYm9iQGRvbWFpbi5jb20wggEiMA0GCSqG
SIb3DQEBAQUAA4IBDwAwggEKAoIBAQDE7D/aB1ty2Um5VZgJWQSjoy7wVHcj9eBO
5FnQSIBFez0DLAjSggcH0+59xf6ekrl+GTsRaPeAvGRfkoeXrtxsdTBUFCe1kys1
LVTSI3yLtpcVhMoXfJRA7Io0E+kU7ai+zIZNrr0ZhjrB7nMKZkxt4bladEPtDotC
zFHECsXuN2FbXPP1FH3FXZPlRDdSHPQd0S48z4KDh4HjWlrsr7AjaGRTe+ROfTn9
ZvtW0ST2lVPj5Jvny6VIWKZEBidv1n5SNtZQrOk/k+v1jPRuNd8rdrxMBbkzzECV
Wxx62CNqRD1hkIDqb+/H58CXzsak/843XKZb55KzGy2tdhYCHv9jAgMBAAGjggEQ
MIIBDDAOBgNVHQ8BAf8EBAMCB4AwCQYDVR0TBAIwADATBgNVHSUEDDAKBggrBgEF
BQcDAjAdBgNVHQ4EFgQUBw4a6aJYIlOKZC2nm4oN+HKN4MUwHwYDVR0jBBgwFoAU
t7qwAqHnvjTGwQVcZnjlu1NdoVQwRAYIKwYBBQUHAQEEODA2MDQGCCsGAQUFBzAC
hihodHRwOi8vcGtpLmVzb2RlbW9hcHAyLmNvbS9jYS90bHMtY2EuY2VyMDkGA1Ud
HwQyMDAwLqAsoCqGKGh0dHA6Ly9wa2kuZXNvZGVtb2FwcDIuY29tL2NhL3Rscy1j
YS5jcmwwGQYDVR0RBBIwEIEOYm9iQGRvbWFpbi5jb20wDQYJKoZIhvcNAQELBQAD
ggEBALafBFCjp4GS6KfNaGSTmfkhSxhZZ94PyhefgykzG1fsuhin1dIaT3BYrNde
XFDxjtGc2QXl/WKuJQG0v5pG1NKYhQW+lRqIGWhQ49sD7S+bzLwZuD+rDTDepKIK
/p1WLT4wRexZwcygR2CZ/DhQj625GhwvGCWu9w8cnwW6ScCe7V3LDnX3uU7N0N8k
ZNqbZ/OLWLhoVDJJ1qQrZ2lkAL4iftO20GiLtST/8UdAA4wUnb1+mwmFx5wjPg69
sRpTzAHn65mXYqLGBHCZ5svnR4AhGPkP241TOmPKmeU71psffPxpffY2xF3/EoCD
ZTyc1CUVwDFd7KT/5XJH3dLRrr8=
-----END CERTIFICATE-----
