Certificate:
    Data:
        Version: 3 (0x2)
        Serial Number: 20 (0x14)
        Signature Algorithm: sha256WithRSAEncryption
        Issuer: C=US, O=Google, OU=Enterprise, CN=Enterprise Subordinate CA
        Validity
            Not Before: Jul 13 09:53:19 2022 GMT
            Not After : Oct 20 09:53:19 2024 GMT
        Subject: C=US, O=Google, OU=Enterprise, CN=grpc.domain.com
        Subject Public Key Info:
            Public Key Algorithm: rsaEncryption
                RSA Public-Key: (2048 bit)
                Modulus:
                    00:df:2c:f0:31:49:da:fc:b0:a5:7b:9f:49:5d:6a:
                    63:58:67:bb:64:b1:f9:13:d9:9b:d4:45:45:e8:96:
                    67:43:b5:34:bb:95:e1:60:0e:ed:eb:c6:1e:86:78:
                    4a:83:d1:ed:db:8e:69:12:f4:4f:60:71:01:69:f7:
                    f5:65:49:ff:95:15:e4:d3:f6:43:ce:98:e8:19:3b:
                    14:90:1e:8c:e0:81:3b:79:d6:0d:c5:d8:11:d6:e4:
                    2f:62:9f:ea:cc:f6:96:46:07:64:b5:ef:9c:31:72:
                    7a:25:74:df:df:2d:41:af:d0:4a:ca:69:14:7b:09:
                    16:20:83:42:1f:0f:5d:b4:2a:2d:dc:da:4d:55:e4:
                    27:63:b3:05:8f:4e:09:49:e7:fa:06:c0:46:11:14:
                    3e:cb:2c:4d:0c:8d:5d:cc:3b:fc:e8:a6:c3:37:9c:
                    29:06:f4:65:aa:81:27:e0:e6:f2:77:c8:c5:3c:d4:
                    2b:88:db:e4:e4:72:6d:f5:36:10:e8:cb:12:3a:c0:
                    3b:fb:43:f2:82:83:2f:d8:dc:32:05:42:a5:21:5a:
                    80:ce:49:90:14:80:ad:e9:7d:48:c8:0b:a5:bf:3d:
                    d3:4c:d7:5b:27:e2:1c:be:8b:dd:06:33:34:25:0d:
                    2a:85:38:8a:15:e7:46:57:84:6f:9a:f2:aa:ba:e6:
                    ff:49
                Exponent: 65537 (0x10001)
        X509v3 extensions:
            X509v3 Key Usage: critical
                Digital Signature
            X509v3 Basic Constraints: 
                CA:FALSE
            X509v3 Extended Key Usage: 
                TLS Web Server Authentication
            X509v3 Subject Key Identifier: 
                2D:3F:3F:C4:21:10:C7:14:DE:99:7F:74:57:3B:9A:01:2F:A7:73:E4
            X509v3 Authority Key Identifier: 
                keyid:B7:BA:B0:02:A1:E7:BE:34:C6:C1:05:5C:66:78:E5:BB:53:5D:A1:54

            Authority Information Access: 
                CA Issuers - URI:http://pki.esodemoapp2.com/ca/tls-ca.cer

            X509v3 CRL Distribution Points: 

                Full Name:
                  URI:http://pki.esodemoapp2.com/ca/tls-ca.crl

            X509v3 Subject Alternative Name: 
                DNS:grpc.domain.com
    Signature Algorithm: sha256WithRSAEncryption
         88:55:2e:14:b5:74:6e:75:8f:6c:a3:a4:12:af:f3:f0:bc:84:
         64:d6:fd:00:38:f1:c9:71:14:cb:a2:fa:84:48:cc:15:0b:cb:
         25:da:87:14:c8:15:dc:a7:43:5d:df:f5:ca:ff:3d:81:8e:b5:
         d5:8b:8c:e1:4d:e0:45:f5:04:70:73:43:80:b0:61:45:21:5b:
         e2:2f:d1:58:f9:a4:e5:9f:ef:87:1d:b7:5e:73:72:e2:34:ca:
         b4:10:93:5c:e8:29:63:a8:6f:c1:4a:55:1b:68:02:5d:23:53:
         74:b2:e9:1f:25:ea:5b:c0:49:86:33:bb:76:1a:4e:b7:71:77:
         0a:8e:41:f5:29:fb:d4:c7:ac:2b:96:45:0d:a9:a8:09:45:58:
         26:13:2e:89:2a:af:a6:c4:bb:5d:36:dc:59:9c:6a:83:e7:be:
         75:e4:20:ae:3c:2a:5b:dd:2c:ec:cd:ab:01:30:4b:56:1d:fe:
         fd:e8:02:31:51:87:ff:f2:af:11:69:bd:8a:64:75:c3:db:de:
         44:73:5e:6c:ae:fd:3f:99:0c:6c:36:5e:a3:96:e2:9d:83:f7:
         7e:4d:2b:fb:f7:6b:0b:1b:38:80:23:82:16:ec:7f:4a:42:4a:
         db:43:9b:87:5e:94:38:d1:b7:c8:be:05:82:4c:cb:b9:7f:d7:
         1f:00:af:fc
-----BEGIN CERTIFICATE-----
MIIEMjCCAxqgAwIBAgIBFDANBgkqhkiG9w0BAQsFADBXMQswCQYDVQQGEwJVUzEP
MA0GA1UECgwGR29vZ2xlMRMwEQYDVQQLDApFbnRlcnByaXNlMSIwIAYDVQQDDBlF
bnRlcnByaXNlIFN1Ym9yZGluYXRlIENBMB4XDTIyMDcxMzA5NTMxOVoXDTI0MTAy
MDA5NTMxOVowTTELMAkGA1UEBhMCVVMxDzANBgNVBAoMBkdvb2dsZTETMBEGA1UE
CwwKRW50ZXJwcmlzZTEYMBYGA1UEAwwPZ3JwYy5kb21haW4uY29tMIIBIjANBgkq
hkiG9w0BAQEFAAOCAQ8AMIIBCgKCAQEA3yzwMUna/LCle59JXWpjWGe7ZLH5E9mb
1EVF6JZnQ7U0u5XhYA7t68YehnhKg9Ht245pEvRPYHEBaff1ZUn/lRXk0/ZDzpjo
GTsUkB6M4IE7edYNxdgR1uQvYp/qzPaWRgdkte+cMXJ6JXTf3y1Br9BKymkUewkW
IINCHw9dtCot3NpNVeQnY7MFj04JSef6BsBGERQ+yyxNDI1dzDv86KbDN5wpBvRl
qoEn4Obyd8jFPNQriNvk5HJt9TYQ6MsSOsA7+0PygoMv2NwyBUKlIVqAzkmQFICt
6X1IyAulvz3TTNdbJ+IcvovdBjM0JQ0qhTiKFedGV4RvmvKquub/SQIDAQABo4IB
ETCCAQ0wDgYDVR0PAQH/BAQDAgeAMAkGA1UdEwQCMAAwEwYDVR0lBAwwCgYIKwYB
BQUHAwEwHQYDVR0OBBYEFC0/P8QhEMcU3pl/dFc7mgEvp3PkMB8GA1UdIwQYMBaA
FLe6sAKh5740xsEFXGZ45btTXaFUMEQGCCsGAQUFBwEBBDgwNjA0BggrBgEFBQcw
AoYoaHR0cDovL3BraS5lc29kZW1vYXBwMi5jb20vY2EvdGxzLWNhLmNlcjA5BgNV
HR8EMjAwMC6gLKAqhihodHRwOi8vcGtpLmVzb2RlbW9hcHAyLmNvbS9jYS90bHMt
Y2EuY3JsMBoGA1UdEQQTMBGCD2dycGMuZG9tYWluLmNvbTANBgkqhkiG9w0BAQsF
AAOCAQEAiFUuFLV0bnWPbKOkEq/z8LyEZNb9ADjxyXEUy6L6hEjMFQvLJdqHFMgV
3KdDXd/1yv89gY611YuM4U3gRfUEcHNDgLBhRSFb4i/RWPmk5Z/vhx23XnNy4jTK
tBCTXOgpY6hvwUpVG2gCXSNTdLLpHyXqW8BJhjO7dhpOt3F3Co5B9Sn71MesK5ZF
DamoCUVYJhMuiSqvpsS7XTbcWZxqg+e+deQgrjwqW90s7M2rATBLVh3+/egCMVGH
//KvEWm9imR1w9veRHNebK79P5kMbDZeo5binYP3fk0r+/drCxs4gCOCFux/SkJK
20Obh16UONG3yL4FgkzLuX/XHwCv/A==
-----END CERTIFICATE-----
