Certificate:
    Data:
        Version: 3 (0x2)
        Serial Number: 29 (0x1d)
        Signature Algorithm: sha256WithRSAEncryption
        Issuer: C=US, O=Google, OU=Enterprise, CN=Enterprise Subordinate CA
        Validity
            Not Before: Aug 17 18:01:30 2022 GMT
            Not After : Nov 24 18:01:30 2024 GMT
        Subject: C=US, O=Google, OU=Enterprise, CN=jwt.domain.com
        Subject Public Key Info:
            Public Key Algorithm: rsaEncryption
                Public-Key: (2048 bit)
                Modulus:
                    00:b4:8b:ce:a6:2a:67:3f:c4:00:c5:23:82:2a:07:
                    01:a7:53:4d:a5:fa:94:8d:07:0c:38:6e:18:f3:13:
                    f5:87:3e:91:a1:1e:b2:ed:c5:fd:12:39:2d:04:66:
                    8f:99:a3:64:36:d8:13:b7:d0:a8:38:e4:71:fb:c2:
                    7a:23:db:b1:0f:6c:2d:01:58:84:41:28:a4:9d:87:
                    a6:d7:ee:61:de:9b:54:0f:b3:5e:10:e7:0e:2c:90:
                    a3:33:8e:52:c7:32:a5:cf:49:df:30:d1:54:ef:37:
                    ac:61:8c:f0:1e:11:34:68:c3:51:2e:ef:c2:9e:86:
                    7b:85:e2:8b:41:c4:b8:dd:73:3e:5a:d7:87:07:bd:
                    33:48:9a:95:ca:2a:d4:ec:68:5d:e4:76:01:61:62:
                    c9:8f:08:31:53:a2:ad:63:a3:01:bd:98:0f:6c:8e:
                    c1:0b:9e:1f:9f:87:e5:7c:1c:03:05:a1:93:04:a4:
                    9e:1b:1b:c9:a8:2d:2b:93:3a:25:bd:42:79:32:60:
                    ef:97:52:20:88:b9:71:f5:33:a9:56:e8:b2:91:9e:
                    3f:ec:8b:c1:08:9b:0b:5e:e8:ad:59:6b:a8:67:4c:
                    a1:0c:c2:54:6a:ed:34:40:d1:16:d3:03:ab:1b:59:
                    cd:30:98:81:7e:2b:5a:f7:3c:d3:e1:5f:db:b1:29:
                    ad:39
                Exponent: 65537 (0x10001)
        X509v3 extensions:
            X509v3 Key Usage: critical
                Digital Signature
            X509v3 Basic Constraints: 
                CA:FALSE
            X509v3 Subject Key Identifier: 
                A9:7F:F7:6F:E1:40:88:64:20:A9:F4:CD:8F:ED:EA:B1:51:4A:45:E9
            X509v3 Authority Key Identifier: 
                B7:BA:B0:02:A1:E7:BE:34:C6:C1:05:5C:66:78:E5:BB:53:5D:A1:54
            Authority Information Access: 
                CA Issuers - URI:http://pki.esodemoapp2.com/ca/tls-ca.cer
            X509v3 CRL Distribution Points: 
                Full Name:
                  URI:http://pki.esodemoapp2.com/ca/tls-ca.crl
            X509v3 Extended Key Usage: 
                TLS Web Server Authentication
            X509v3 Subject Alternative Name: 
                DNS:server.domain.com
    Signature Algorithm: sha256WithRSAEncryption
    Signature Value:
        b7:13:18:63:a2:22:0c:78:87:c3:8d:b1:85:5f:dc:63:c2:4f:
        64:b0:77:a1:4b:f1:ce:2e:8e:bd:d0:01:0e:3d:ce:2b:e0:08:
        2c:8f:37:a5:8d:e0:f5:3d:e5:6b:8f:be:2a:c9:e2:23:24:ab:
        62:5a:81:13:d8:a0:67:e6:3b:bf:04:3d:fb:22:5f:dd:61:45:
        ed:04:2f:67:a6:06:b6:10:1f:5a:c8:3f:21:2e:29:2f:55:01:
        31:4e:a0:2f:36:bf:0b:ed:e0:a8:5c:99:f1:3a:43:8d:17:52:
        db:88:35:8c:b0:6b:90:95:51:d1:aa:4f:27:76:cd:dd:40:47:
        92:cb:da:2e:0d:3c:7f:eb:93:43:58:3b:bf:52:56:0c:ea:33:
        32:f6:24:45:69:14:20:f1:af:9f:dd:e2:f9:a0:0e:c6:4a:a9:
        97:22:a3:12:64:88:4b:08:56:f1:31:cb:91:4d:bc:35:ac:bd:
        57:85:e4:cb:59:62:b7:b4:dd:7b:cb:2c:54:ca:da:c3:70:61:
        dd:bc:2d:53:b8:d2:f4:05:fa:45:91:ea:25:62:39:cd:ac:98:
        59:21:7a:7f:40:a1:e5:ec:c1:3f:5e:0f:5d:f1:4b:84:04:10:
        3c:48:27:ce:4b:fe:76:f3:4e:de:28:cd:28:ab:6e:7d:2b:9b:
        09:04:e3:d1
-----BEGIN CERTIFICATE-----
MIIEMzCCAxugAwIBAgIBHTANBgkqhkiG9w0BAQsFADBXMQswCQYDVQQGEwJVUzEP
MA0GA1UECgwGR29vZ2xlMRMwEQYDVQQLDApFbnRlcnByaXNlMSIwIAYDVQQDDBlF
bnRlcnByaXNlIFN1Ym9yZGluYXRlIENBMB4XDTIyMDgxNzE4MDEzMFoXDTI0MTEy
NDE4MDEzMFowTDELMAkGA1UEBhMCVVMxDzANBgNVBAoMBkdvb2dsZTETMBEGA1UE
CwwKRW50ZXJwcmlzZTEXMBUGA1UEAwwOand0LmRvbWFpbi5jb20wggEiMA0GCSqG
SIb3DQEBAQUAA4IBDwAwggEKAoIBAQC0i86mKmc/xADFI4IqBwGnU02l+pSNBww4
bhjzE/WHPpGhHrLtxf0SOS0EZo+Zo2Q22BO30Kg45HH7wnoj27EPbC0BWIRBKKSd
h6bX7mHem1QPs14Q5w4skKMzjlLHMqXPSd8w0VTvN6xhjPAeETRow1Eu78KehnuF
4otBxLjdcz5a14cHvTNImpXKKtTsaF3kdgFhYsmPCDFToq1jowG9mA9sjsELnh+f
h+V8HAMFoZMEpJ4bG8moLSuTOiW9QnkyYO+XUiCIuXH1M6lW6LKRnj/si8EImwte
6K1Za6hnTKEMwlRq7TRA0RbTA6sbWc0wmIF+K1r3PNPhX9uxKa05AgMBAAGjggET
MIIBDzAOBgNVHQ8BAf8EBAMCB4AwCQYDVR0TBAIwADAdBgNVHQ4EFgQUqX/3b+FA
iGQgqfTNj+3qsVFKRekwHwYDVR0jBBgwFoAUt7qwAqHnvjTGwQVcZnjlu1NdoVQw
RAYIKwYBBQUHAQEEODA2MDQGCCsGAQUFBzAChihodHRwOi8vcGtpLmVzb2RlbW9h
cHAyLmNvbS9jYS90bHMtY2EuY2VyMDkGA1UdHwQyMDAwLqAsoCqGKGh0dHA6Ly9w
a2kuZXNvZGVtb2FwcDIuY29tL2NhL3Rscy1jYS5jcmwwEwYDVR0lBAwwCgYIKwYB
BQUHAwEwHAYDVR0RBBUwE4IRc2VydmVyLmRvbWFpbi5jb20wDQYJKoZIhvcNAQEL
BQADggEBALcTGGOiIgx4h8ONsYVf3GPCT2Swd6FL8c4ujr3QAQ49zivgCCyPN6WN
4PU95WuPvirJ4iMkq2JagRPYoGfmO78EPfsiX91hRe0EL2emBrYQH1rIPyEuKS9V
ATFOoC82vwvt4KhcmfE6Q40XUtuINYywa5CVUdGqTyd2zd1AR5LL2i4NPH/rk0NY
O79SVgzqMzL2JEVpFCDxr5/d4vmgDsZKqZcioxJkiEsIVvExy5FNvDWsvVeF5MtZ
Yre03XvLLFTK2sNwYd28LVO40vQF+kWR6iViOc2smFkhen9AoeXswT9eD13xS4QE
EDxIJ85L/nbzTt4ozSirbn0rmwkE49E=
-----END CERTIFICATE-----
