Certificate:
    Data:
        Version: 3 (0x2)
        Serial Number: 23 (0x17)
        Signature Algorithm: sha256WithRSAEncryption
        Issuer: C=US, O=Google, OU=Enterprise, CN=Enterprise Subordinate CA
        Validity
            Not Before: Jul 14 00:16:00 2022 GMT
            Not After : Oct 21 00:16:00 2024 GMT
        Subject: C=US, O=Google, OU=Enterprise, CN=sts.domain.com
        Subject Public Key Info:
            Public Key Algorithm: rsaEncryption
                RSA Public-Key: (2048 bit)
                Modulus:
                    00:c3:a2:88:db:58:d9:87:a3:c5:80:ce:a3:ef:3c:
                    d3:45:19:39:d1:8a:fa:f3:5e:0b:d0:89:1b:94:25:
                    83:1e:3e:96:4f:bf:60:11:21:a1:ee:1b:3f:ea:96:
                    cd:9e:11:6c:9e:dd:fc:e6:7c:76:5a:59:5e:46:c7:
                    95:ab:25:7c:bc:13:97:65:ea:23:90:14:4c:48:36:
                    f3:43:f8:f3:61:aa:0b:4e:29:33:c7:d0:60:69:fc:
                    ee:ab:44:45:1f:ff:a1:92:e9:b7:73:13:58:c0:b1:
                    1e:f8:c9:96:a5:88:50:27:44:65:2e:68:3f:73:cc:
                    9e:6b:4c:f0:b2:dc:86:31:61:ad:46:83:86:7d:77:
                    de:7b:9f:66:27:65:cb:83:f5:31:e7:df:13:a9:44:
                    1b:d3:4e:57:54:d2:25:10:04:bb:06:c5:6d:a7:e3:
                    e6:8d:33:7d:95:aa:05:55:55:f4:fc:fa:69:42:09:
                    b6:1a:5a:84:5d:d9:8f:28:f6:6a:be:9c:a9:e1:90:
                    28:97:d2:62:9e:6c:c0:47:e5:84:87:29:d8:d7:cd:
                    7c:6d:d2:d1:9a:4d:41:4f:67:1e:23:ae:47:91:f8:
                    e7:05:db:8e:4c:15:3a:1a:06:95:b1:7f:d2:67:4f:
                    1b:b8:25:69:fc:2a:dd:66:c5:fa:e7:ee:94:b4:23:
                    c2:57
                Exponent: 65537 (0x10001)
        X509v3 extensions:
            X509v3 Key Usage: critical
                Digital Signature
            X509v3 Basic Constraints: 
                CA:FALSE
            X509v3 Extended Key Usage: 
                TLS Web Server Authentication
            X509v3 Subject Key Identifier: 
                BF:25:24:5B:BE:17:73:67:D9:65:8C:BF:AB:0C:3A:FC:D2:D4:E4:5F
            X509v3 Authority Key Identifier: 
                keyid:B7:BA:B0:02:A1:E7:BE:34:C6:C1:05:5C:66:78:E5:BB:53:5D:A1:54

            Authority Information Access: 
                CA Issuers - URI:http://pki.esodemoapp2.com/ca/tls-ca.cer

            X509v3 CRL Distribution Points: 

                Full Name:
                  URI:http://pki.esodemoapp2.com/ca/tls-ca.crl

            X509v3 Subject Alternative Name: 
                DNS:sts.domain.com
    Signature Algorithm: sha256WithRSAEncryption
         4e:46:18:9d:13:9a:c1:ea:58:46:3f:cf:9a:51:85:8a:1f:2e:
         e5:08:65:92:97:15:0f:0e:71:0c:d9:eb:1a:8c:31:27:30:47:
         38:78:87:da:52:99:7c:fa:d3:e8:79:be:f8:26:dd:42:4e:0e:
         03:b5:c4:d6:f5:cd:f0:39:24:dd:27:c4:4e:48:51:6f:72:a0:
         a0:90:28:16:a8:fb:2f:e2:75:5b:df:4d:63:dc:5d:d6:67:4b:
         2d:34:98:31:5e:97:78:54:c6:6c:3b:8d:b7:40:6e:ef:6d:8d:
         46:28:7e:93:6f:f8:f3:62:a6:66:57:1d:99:12:10:29:bc:e4:
         c8:8d:63:b0:fe:09:7b:8f:ea:c6:44:bf:66:4b:d8:16:24:02:
         5b:c6:d7:9d:8a:4c:d5:18:7a:68:87:61:31:72:d7:cf:89:1e:
         c3:f1:a0:a4:96:a4:f6:0d:80:3f:ab:95:2d:37:b9:dd:05:f1:
         e1:12:e8:af:c9:e2:e5:75:c1:84:a5:7c:89:15:24:f8:22:48:
         c4:3c:80:8c:80:a6:48:6d:1f:8a:61:1e:71:37:4b:bb:5e:ec:
         55:da:54:d5:d1:22:62:01:73:93:cb:da:d5:c4:fd:a9:35:c7:
         1b:3b:e6:a2:08:23:97:7a:0e:04:aa:ce:ff:3f:87:e8:bf:ac:
         7b:68:09:b3
-----BEGIN CERTIFICATE-----
MIIEMDCCAxigAwIBAgIBFzANBgkqhkiG9w0BAQsFADBXMQswCQYDVQQGEwJVUzEP
MA0GA1UECgwGR29vZ2xlMRMwEQYDVQQLDApFbnRlcnByaXNlMSIwIAYDVQQDDBlF
bnRlcnByaXNlIFN1Ym9yZGluYXRlIENBMB4XDTIyMDcxNDAwMTYwMFoXDTI0MTAy
MTAwMTYwMFowTDELMAkGA1UEBhMCVVMxDzANBgNVBAoMBkdvb2dsZTETMBEGA1UE
CwwKRW50ZXJwcmlzZTEXMBUGA1UEAwwOc3RzLmRvbWFpbi5jb20wggEiMA0GCSqG
SIb3DQEBAQUAA4IBDwAwggEKAoIBAQDDoojbWNmHo8WAzqPvPNNFGTnRivrzXgvQ
iRuUJYMePpZPv2ARIaHuGz/qls2eEWye3fzmfHZaWV5Gx5WrJXy8E5dl6iOQFExI
NvND+PNhqgtOKTPH0GBp/O6rREUf/6GS6bdzE1jAsR74yZaliFAnRGUuaD9zzJ5r
TPCy3IYxYa1Gg4Z9d957n2YnZcuD9THn3xOpRBvTTldU0iUQBLsGxW2n4+aNM32V
qgVVVfT8+mlCCbYaWoRd2Y8o9mq+nKnhkCiX0mKebMBH5YSHKdjXzXxt0tGaTUFP
Zx4jrkeR+OcF245MFToaBpWxf9JnTxu4JWn8Kt1mxfrn7pS0I8JXAgMBAAGjggEQ
MIIBDDAOBgNVHQ8BAf8EBAMCB4AwCQYDVR0TBAIwADATBgNVHSUEDDAKBggrBgEF
BQcDATAdBgNVHQ4EFgQUvyUkW74Xc2fZZYy/qww6/NLU5F8wHwYDVR0jBBgwFoAU
t7qwAqHnvjTGwQVcZnjlu1NdoVQwRAYIKwYBBQUHAQEEODA2MDQGCCsGAQUFBzAC
hihodHRwOi8vcGtpLmVzb2RlbW9hcHAyLmNvbS9jYS90bHMtY2EuY2VyMDkGA1Ud
HwQyMDAwLqAsoCqGKGh0dHA6Ly9wa2kuZXNvZGVtb2FwcDIuY29tL2NhL3Rscy1j
YS5jcmwwGQYDVR0RBBIwEIIOc3RzLmRvbWFpbi5jb20wDQYJKoZIhvcNAQELBQAD
ggEBAE5GGJ0TmsHqWEY/z5pRhYofLuUIZZKXFQ8OcQzZ6xqMMScwRzh4h9pSmXz6
0+h5vvgm3UJODgO1xNb1zfA5JN0nxE5IUW9yoKCQKBao+y/idVvfTWPcXdZnSy00
mDFel3hUxmw7jbdAbu9tjUYofpNv+PNipmZXHZkSECm85MiNY7D+CXuP6sZEv2ZL
2BYkAlvG152KTNUYemiHYTFy18+JHsPxoKSWpPYNgD+rlS03ud0F8eES6K/J4uV1
wYSlfIkVJPgiSMQ8gIyApkhtH4phHnE3S7te7FXaVNXRImIBc5PL2tXE/ak1xxs7
5qIII5d6DgSqzv8/h+i/rHtoCbM=
-----END CERTIFICATE-----
