Certificate:
    Data:
        Version: 3 (0x2)
        Serial Number: 39 (0x27)
        Signature Algorithm: sha256WithRSAEncryption
        Issuer: C=US, O=Google, OU=Enterprise, CN=Single Root CA
        Validity
            Not Before: Aug 15 18:16:02 2024 GMT
            Not After : Aug 15 18:16:02 2034 GMT
        Subject: C=US, O=Google, OU=Enterprise, CN=sts.domain.com
        Subject Public Key Info:
            Public Key Algorithm: rsaEncryption
                Public-Key: (2048 bit)
                Modulus:
                    00:a3:7b:c1:37:a1:4f:05:26:48:73:41:78:ec:83:
                    ed:75:ea:87:01:81:06:e4:0a:07:c9:c3:88:0b:6d:
                    d6:bc:84:b9:44:f0:52:0f:52:c0:c7:e2:76:10:50:
                    9b:84:79:f0:53:f5:80:b0:e5:f7:e9:47:a5:74:a1:
                    e2:ef:98:16:52:b0:9a:2d:f5:0b:34:32:7e:7e:a2:
                    e8:2a:21:da:ff:01:7d:57:a9:4b:cc:a8:15:95:0a:
                    d0:b2:5a:5a:4f:7c:a6:a0:2f:49:b3:b3:b2:f7:60:
                    14:0f:c2:72:a4:d9:23:67:b6:a4:d6:d5:4b:65:d1:
                    6e:7f:24:88:fb:36:48:0d:43:e1:36:47:2f:a5:d2:
                    78:c2:8e:45:81:45:68:d7:67:80:05:0d:3e:eb:0d:
                    2b:89:19:39:7b:83:a9:d0:dc:4f:91:ab:b9:38:ea:
                    a5:b0:4c:8d:a9:70:63:00:9a:df:9d:29:15:1d:d2:
                    1e:57:14:17:a6:ae:8c:84:1b:8b:32:8b:5b:a5:0f:
                    60:4b:8a:18:79:42:44:64:48:cd:b4:c9:21:56:0b:
                    28:c7:f9:5d:80:43:d8:c5:70:f7:82:26:18:9c:21:
                    17:e3:1d:ad:c4:21:72:51:d2:93:0d:fc:f1:80:29:
                    dd:4f:8d:64:be:2f:f2:6d:de:bc:65:68:30:11:de:
                    91:3f
                Exponent: 65537 (0x10001)
        X509v3 extensions:
            X509v3 Key Usage: critical
                Digital Signature
            X509v3 Basic Constraints: 
                CA:FALSE
            X509v3 Extended Key Usage: 
                TLS Web Server Authentication
            X509v3 Subject Key Identifier: 
                3E:82:E0:53:4C:C1:61:CD:03:F1:A8:BD:AE:DE:37:E9:00:72:7D:BD
            X509v3 Authority Key Identifier: 
                EC:F0:EA:53:53:3F:9F:23:DC:C1:0E:31:10:37:07:DE:DE:E7:6E:F3
            Authority Information Access: 
                CA Issuers - URI:http://pki.esodemoapp2.com/ca/root-ca.cer
            X509v3 CRL Distribution Points: 
                Full Name:
                  URI:http://pki.esodemoapp2.com/ca/root-ca.crl
            X509v3 Subject Alternative Name: 
                DNS:sts.domain.com
    Signature Algorithm: sha256WithRSAEncryption
    Signature Value:
        25:41:89:45:a1:f8:50:3d:ff:a0:43:1e:fc:16:04:9c:e3:3f:
        7b:32:cf:dd:3c:35:ab:83:05:dd:73:e3:25:9e:4d:e7:47:cb:
        48:4e:71:a7:a3:73:c1:6f:cd:a5:e4:b0:79:95:53:97:7a:e6:
        8e:bb:df:ae:85:25:88:99:8d:16:9c:c9:b9:12:f8:bb:c6:ce:
        55:33:bc:37:03:48:b9:10:ee:66:09:2d:f8:e6:38:f1:b4:16:
        ee:cb:de:6f:f9:25:0e:0c:92:9d:7e:13:09:15:24:eb:c0:84:
        1d:2a:ae:33:92:5e:80:b3:ae:69:a6:ef:9d:f3:29:19:fb:e8:
        fc:8b:0c:53:68:25:09:78:4e:54:db:fc:54:81:4d:f7:da:94:
        85:67:51:52:37:61:94:1b:4a:0c:fa:ec:4c:fb:65:fa:11:13:
        2b:db:45:49:9b:da:ca:44:eb:52:7b:62:51:ee:ce:d7:6e:ec:
        28:b9:9a:c8:ed:1a:e7:8d:68:33:9c:5b:29:9a:c3:76:d1:5d:
        1d:34:42:4a:ec:19:2f:40:fa:6a:b2:75:3f:fb:0d:9a:f7:b9:
        df:1c:8b:52:cc:2a:57:bb:8b:6d:c8:06:a9:6a:03:c6:b6:ba:
        7a:a2:3b:e4:98:54:ef:75:d3:ff:d0:32:0b:86:66:c8:de:6e:
        bf:de:ff:d6
-----BEGIN CERTIFICATE-----
MIIEJzCCAw+gAwIBAgIBJzANBgkqhkiG9w0BAQsFADBMMQswCQYDVQQGEwJVUzEP
MA0GA1UECgwGR29vZ2xlMRMwEQYDVQQLDApFbnRlcnByaXNlMRcwFQYDVQQDDA5T
aW5nbGUgUm9vdCBDQTAeFw0yNDA4MTUxODE2MDJaFw0zNDA4MTUxODE2MDJaMEwx
CzAJBgNVBAYTAlVTMQ8wDQYDVQQKDAZHb29nbGUxEzARBgNVBAsMCkVudGVycHJp
c2UxFzAVBgNVBAMMDnN0cy5kb21haW4uY29tMIIBIjANBgkqhkiG9w0BAQEFAAOC
AQ8AMIIBCgKCAQEAo3vBN6FPBSZIc0F47IPtdeqHAYEG5AoHycOIC23WvIS5RPBS
D1LAx+J2EFCbhHnwU/WAsOX36UeldKHi75gWUrCaLfULNDJ+fqLoKiHa/wF9V6lL
zKgVlQrQslpaT3ymoC9Js7Oy92AUD8JypNkjZ7ak1tVLZdFufySI+zZIDUPhNkcv
pdJ4wo5FgUVo12eABQ0+6w0riRk5e4Op0NxPkau5OOqlsEyNqXBjAJrfnSkVHdIe
VxQXpq6MhBuLMotbpQ9gS4oYeUJEZEjNtMkhVgsox/ldgEPYxXD3giYYnCEX4x2t
xCFyUdKTDfzxgCndT41kvi/ybd68ZWgwEd6RPwIDAQABo4IBEjCCAQ4wDgYDVR0P
AQH/BAQDAgeAMAkGA1UdEwQCMAAwEwYDVR0lBAwwCgYIKwYBBQUHAwEwHQYDVR0O
BBYEFD6C4FNMwWHNA/Gova7eN+kAcn29MB8GA1UdIwQYMBaAFOzw6lNTP58j3MEO
MRA3B97e527zMEUGCCsGAQUFBwEBBDkwNzA1BggrBgEFBQcwAoYpaHR0cDovL3Br
aS5lc29kZW1vYXBwMi5jb20vY2Evcm9vdC1jYS5jZXIwOgYDVR0fBDMwMTAvoC2g
K4YpaHR0cDovL3BraS5lc29kZW1vYXBwMi5jb20vY2Evcm9vdC1jYS5jcmwwGQYD
VR0RBBIwEIIOc3RzLmRvbWFpbi5jb20wDQYJKoZIhvcNAQELBQADggEBACVBiUWh
+FA9/6BDHvwWBJzjP3syz908NauDBd1z4yWeTedHy0hOcaejc8FvzaXksHmVU5d6
5o67366FJYiZjRacybkS+LvGzlUzvDcDSLkQ7mYJLfjmOPG0Fu7L3m/5JQ4Mkp1+
EwkVJOvAhB0qrjOSXoCzrmmm753zKRn76PyLDFNoJQl4TlTb/FSBTffalIVnUVI3
YZQbSgz67Ez7ZfoREyvbRUmb2spE61J7YlHuztdu7Ci5msjtGueNaDOcWymaw3bR
XR00QkrsGS9A+mqydT/7DZr3ud8ci1LMKle7i23IBqlqA8a2unqiO+SYVO910//Q
MguGZsjebr/e/9Y=
-----END CERTIFICATE-----
